; Function Attrs: nounwind uwtable
define noalias nonnull ptr @l_Lean_Elab_elabSetOption___rarg___lambda__1(ptr noundef %0, ptr noundef %1) #0 {
  %3 = tail call ptr @lean_io_error_to_string(ptr noundef %1) #4
  tail call void @lean_inc_heartbeat() #4
  %4 = tail call noalias ptr @mi_malloc_small(i64 noundef 16) #4
  %5 = icmp eq ptr %4, null
  br i1 %5, label %6, label %lean_alloc_ctor.exit

6:                                                ; preds = %2
  tail call void @lean_internal_panic_out_of_memory() #5
  unreachable

lean_alloc_ctor.exit:                             ; preds = %2
  %7 = getelementptr inbounds nuw i8, ptr %4, i64 4
  store i32 1, ptr %4, align 4, !tbaa !8
  store i32 50397200, ptr %7, align 4
  %8 = getelementptr inbounds nuw i8, ptr %4, i64 8
  store ptr %3, ptr %8, align 8, !tbaa !4
  %9 = tail call ptr @l_Lean_MessageData_ofFormat(ptr noundef nonnull %4) #4
  tail call void @lean_inc_heartbeat() #4
  %10 = tail call noalias ptr @mi_malloc_small(i64 noundef 24) #4
  %11 = icmp eq ptr %10, null
  br i1 %11, label %12, label %lean_alloc_ctor.exit9

12:                                               ; preds = %lean_alloc_ctor.exit
  tail call void @lean_internal_panic_out_of_memory() #5
  unreachable

lean_alloc_ctor.exit9:                            ; preds = %lean_alloc_ctor.exit
  %13 = getelementptr inbounds nuw i8, ptr %10, i64 4
  store i32 1, ptr %10, align 4, !tbaa !8
  store i32 131096, ptr %13, align 4
  %14 = getelementptr inbounds nuw i8, ptr %10, i64 8
  store ptr %0, ptr %14, align 8, !tbaa !4
  %15 = getelementptr inbounds nuw i8, ptr %10, i64 16
  store ptr %9, ptr %15, align 8, !tbaa !4
  ret ptr %10
}